
reflex.o:     file format elf32-xtensa-le


Disassembly of section .literal:

00000000 <.literal>:
   0:	00000000 	
   4:	3ff49000 	
   8:	3ff4a000 	
   c:	00003840 	

Disassembly of section .text:

00000000 <_start>:
   0:	000021        	l32r	a2, fffc0000 <ENCODER_REG_ADDR+0xc0076000>
   3:	030c      	movi.n	a3, 0
   5:	005232        	s16i	a3, a2, 0
   8:	034232        	s8i	a3, a2, 3
   b:	044232        	s8i	a3, a2, 4
   e:	054232        	s8i	a3, a2, 5
  11:	064232        	s8i	a3, a2, 6
  14:	074232        	s8i	a3, a2, 7
  17:	045232        	s16i	a3, a2, 8
  1a:	055232        	s16i	a3, a2, 10
  1d:	830c      	movi.n	a3, 8
  1f:	024232        	s8i	a3, a2, 2
  22:	000041        	l32r	a4, fffc0024 <ENCODER_REG_ADDR+0xc0076024>
  25:	050c      	movi.n	a5, 0
  27:	004452        	s8i	a5, a4, 0

0000002a <reflex_loop>:
  2a:	03ea70        	rsr.ccount	a7
  2d:	3279      	s32i.n	a7, a2, 12
  2f:	000081        	l32r	a8, fffc0030 <ENCODER_REG_ADDR+0xc0076030>
  32:	001892        	l16ui	a9, a8, 0
  35:	055292        	s16i	a9, a2, 10
  38:	0012a2        	l16ui	a10, a2, 0
  3b:	c0b9a0        	sub	a11, a9, a10
  3e:	0bcd      	mov.n	a12, a11
  40:	004c96        	bltz	a12, 48 <drift_neg>
  43:	f03d      	nop.n
  45:	000086        	j	4b <drift_abs_done>

00000048 <drift_neg>:
  48:	60c0c0        	neg	a12, a12

0000004b <drift_abs_done>:
  4b:	0452c2        	s16i	a12, a2, 8
  4e:	0202d2        	l8ui	a13, a2, 2
  51:	173cd7        	bltu	a12, a13, 6c <drift_ok>
  54:	141cd7        	beq	a12, a13, 6c <drift_ok>
  57:	0402e2        	l8ui	a14, a2, 4
  5a:	430c      	movi.n	a3, 4
  5c:	20ee30        	or	a14, a14, a3
  5f:	0442e2        	s8i	a14, a2, 4
  62:	034252        	s8i	a5, a2, 3
  65:	004452        	s8i	a5, a4, 0
  68:	003706        	j	148 <loop_timing_end>
	...

0000006c <drift_ok>:
  6c:	0402e2        	l8ui	a14, a2, 4
  6f:	6c8c      	beqz.n	a12, 79 <clear_drift>
  71:	230c      	movi.n	a3, 2
  73:	20ee30        	or	a14, a14, a3
  76:	000286        	j	84 <drift_bits_done>

00000079 <clear_drift>:
  79:	f1a0f2        	movi	a15, 241
  7c:	10eef0        	and	a14, a14, a15
  7f:	130c      	movi.n	a3, 1
  81:	20ee30        	or	a14, a14, a3

00000084 <drift_bits_done>:
  84:	0442e2        	s8i	a14, a2, 4
  87:	c0fa90        	sub	a15, a10, a9
  8a:	21f2f0        	srai	a15, a15, 2
  8d:	030262        	l8ui	a6, a2, 3
  90:	66fa      	add.n	a6, a6, a15
  92:	00a696        	bltz	a6, a0 <clamp_zero>
  95:	ffa072        	movi	a7, 255
  98:	092677        	blt	a6, a7, a5 <pwm_ok>
  9b:	076d      	mov.n	a6, a7
  9d:	000186        	j	a7 <pwm_store>

000000a0 <clamp_zero>:
  a0:	060c      	movi.n	a6, 0
  a2:	000046        	j	a7 <pwm_store>

000000a5 <pwm_ok>:
  a5:	f03d      	nop.n

000000a7 <pwm_store>:
  a7:	034262        	s8i	a6, a2, 3
  aa:	004462        	s8i	a6, a4, 0
  ad:	050272        	l8ui	a7, a2, 5
  b0:	067716        	beqz	a7, 11b <watchdog>
  b3:	060282        	l8ui	a8, a2, 6
  b6:	070292        	l8ui	a9, a2, 7
  b9:	30a780        	xor	a10, a7, a8
  bc:	529a97        	bne	a10, a9, 112 <cmd_done>
  bf:	1b0c      	movi.n	a11, 1
  c1:	1317b7        	beq	a7, a11, d8 <cmd_set_desired>
  c4:	2b0c      	movi.n	a11, 2
  c6:	1717b7        	beq	a7, a11, e1 <cmd_set_pwm>
  c9:	3b0c      	movi.n	a11, 3
  cb:	1e17b7        	beq	a7, a11, ed <cmd_emerg>
  ce:	4b0c      	movi.n	a11, 4
  d0:	2d17b7        	beq	a7, a11, 101 <cmd_reset>
  d3:	000ec6        	j	112 <cmd_done>
	...

000000d8 <cmd_set_desired>:
  d8:	74c080        	extui	a12, a8, 0, 8
  db:	0052c2        	s16i	a12, a2, 0
  de:	000c06        	j	112 <cmd_done>

000000e1 <cmd_set_pwm>:
  e1:	74c080        	extui	a12, a8, 0, 8
  e4:	0342c2        	s8i	a12, a2, 3
  e7:	0044c2        	s8i	a12, a4, 0
  ea:	000906        	j	112 <cmd_done>

000000ed <cmd_emerg>:
  ed:	034252        	s8i	a5, a2, 3
  f0:	004452        	s8i	a5, a4, 0
  f3:	0402c2        	l8ui	a12, a2, 4
  f6:	830c      	movi.n	a3, 8
  f8:	20cc30        	or	a12, a12, a3
  fb:	0442c2        	s8i	a12, a2, 4
  fe:	000406        	j	112 <cmd_done>

00000101 <cmd_reset>:
 101:	f1a0c2        	movi	a12, 241
 104:	0402d2        	l8ui	a13, a2, 4
 107:	10ddc0        	and	a13, a13, a12
 10a:	130c      	movi.n	a3, 1
 10c:	20dd30        	or	a13, a13, a3
 10f:	0442d2        	s8i	a13, a2, 4

00000112 <cmd_done>:
 112:	054252        	s8i	a5, a2, 5
 115:	064252        	s8i	a5, a2, 6
 118:	074252        	s8i	a5, a2, 7

0000011b <watchdog>:
 11b:	03ea70        	rsr.ccount	a7
 11e:	032282        	l32i	a8, a2, 12
 121:	c09780        	sub	a9, a7, a8
 124:	0000a1        	l32r	a10, fffc0124 <ENCODER_REG_ADDR+0xc0076124>
 127:	1139a7        	bltu	a9, a10, 13c <loop_wait>
 12a:	034252        	s8i	a5, a2, 3
 12d:	004452        	s8i	a5, a4, 0
 130:	0402b2        	l8ui	a11, a2, 4
 133:	08a032        	movi	a3, 8
 136:	20bb30        	or	a11, a11, a3
 139:	0442b2        	s8i	a11, a2, 4

0000013c <loop_wait>:
 13c:	2fd8c2        	addmi	a12, a8, 0x2f00
 13f:	e0ccc2        	addi	a12, a12, -32

00000142 <wait_spin>:
 142:	03ead0        	rsr.ccount	a13
 145:	f93dc7        	bltu	a13, a12, 142 <wait_spin>

00000148 <loop_timing_end>:
 148:	ffb786        	j	2a <reflex_loop>
